target datalayout = "e-m:e-p270:32:32-p271:32:32-p272:64:64-i64:64-i128:128-f80:128-n8:16:32:64-S128"
target triple = "x86_64-pc-linux-gnu"

%struct.unw_proc_info_t = type { i64, i64, i64, i64, i64, i64, i32, i32, i64, i64 }

@stderr = external global ptr, align 8
@.str.7 = private unnamed_addr constant [53 x i8] c"libunwind: __unw_get_proc_info(cursor=%p, &info=%p)\0A\00", align 1
@_ZZ7logAPIsE7checked = internal global i8 0, align 1
@_ZZ7logAPIsE3log = internal global i8 0, align 1
@.str.15 = private unnamed_addr constant [21 x i8] c"LIBUNWIND_PRINT_APIS\00", align 1

; Function Attrs: mustprogress nounwind uwtable
define hidden zeroext i1 @logAPIs() #0 {
  %1 = load i8, ptr @_ZZ7logAPIsE7checked, align 1, !tbaa !19, !range !21, !noundef !22
  %2 = trunc i8 %1 to i1
  br i1 %2, label %7, label %3

3:                                                ; preds = %0
  %4 = call ptr @getenv(ptr noundef @.str.15) #9
  %5 = icmp ne ptr %4, null
  %6 = zext i1 %5 to i8
  store i8 %6, ptr @_ZZ7logAPIsE3log, align 1, !tbaa !19
  store i8 1, ptr @_ZZ7logAPIsE7checked, align 1, !tbaa !19
  br label %7

7:                                                ; preds = %3, %0
  %8 = load i8, ptr @_ZZ7logAPIsE3log, align 1, !tbaa !19, !range !21, !noundef !22
  %9 = trunc i8 %8 to i1
  ret i1 %9
}

; Function Attrs: mustprogress nounwind uwtable
define hidden i32 @__unw_get_proc_info(ptr noundef %0, ptr noundef %1) #0 {
  %3 = alloca i32, align 4
  %4 = alloca ptr, align 8
  %5 = alloca ptr, align 8
  %6 = alloca ptr, align 8
  %7 = alloca i32, align 4
  store ptr %0, ptr %4, align 8, !tbaa !6
  store ptr %1, ptr %5, align 8, !tbaa !45
  br label %8

8:                                                ; preds = %2
  %9 = call zeroext i1 @logAPIs()
  br i1 %9, label %10, label %19

10:                                               ; preds = %8
  br label %11

11:                                               ; preds = %10
  %12 = load ptr, ptr @stderr, align 8, !tbaa !13
  %13 = load ptr, ptr %4, align 8, !tbaa !6
  %14 = load ptr, ptr %5, align 8, !tbaa !45
  %15 = call i32 (ptr, ptr, ...) @fprintf(ptr noundef %12, ptr noundef @.str.7, ptr noundef %13, ptr noundef %14) #9
  %16 = load ptr, ptr @stderr, align 8, !tbaa !13
  %17 = call i32 @fflush(ptr noundef %16)
  br label %18

18:                                               ; preds = %11
  br label %19

19:                                               ; preds = %18, %8
  br label %20

20:                                               ; preds = %19
  call void @llvm.lifetime.start.p0(i64 8, ptr %6) #9
  %21 = load ptr, ptr %4, align 8, !tbaa !6
  store ptr %21, ptr %6, align 8, !tbaa !15
  %22 = load ptr, ptr %6, align 8, !tbaa !15
  %23 = load ptr, ptr %5, align 8, !tbaa !45
  %24 = load ptr, ptr %22, align 8, !tbaa !17
  %25 = getelementptr inbounds ptr, ptr %24, i64 9
  %26 = load ptr, ptr %25, align 8
  call void %26(ptr noundef nonnull align 8 dereferenceable(8) %22, ptr noundef %23)
  %27 = load ptr, ptr %5, align 8, !tbaa !45
  %28 = getelementptr inbounds nuw %struct.unw_proc_info_t, ptr %27, i32 0, i32 1
  %29 = load i64, ptr %28, align 8, !tbaa !47
  %30 = icmp eq i64 %29, 0
  br i1 %30, label %31, label %32

31:                                               ; preds = %20
  store i32 -6549, ptr %3, align 4
  store i32 1, ptr %7, align 4
  br label %33

32:                                               ; preds = %20
  store i32 0, ptr %3, align 4
  store i32 1, ptr %7, align 4
  br label %33

33:                                               ; preds = %32, %31
  call void @llvm.lifetime.end.p0(i64 8, ptr %6) #9
  %34 = load i32, ptr %3, align 4
  ret i32 %34
}